; Function Attrs: mustprogress uwtable
define noundef zeroext i1 @_ZN7rocksdb13InternalStats29HandleEstimateTableReadersMemEPmPNS_6DBImplEPNS_7VersionE(ptr nocapture nonnull readnone align 8 %this, ptr nocapture noundef writeonly %value, ptr nocapture readnone %0, ptr noundef %version) #4 align 2 personality ptr @__gxx_personality_v0 {
entry:
  %read_options = alloca %"struct.rocksdb::ReadOptions", align 8
  %rate_limiter_priority.i = getelementptr inbounds i8, ptr %read_options, i64 44
  call void @llvm.memset.p0.i64(ptr noundef nonnull align 8 dereferenceable(44) %read_options, i8 0, i64 44, i1 false)
  store i32 4, ptr %rate_limiter_priority.i, align 4
  %value_size_soft_limit.i = getelementptr inbounds i8, ptr %read_options, i64 48
  store i64 -1, ptr %value_size_soft_limit.i, align 8
  %_M_engaged.i.i.i.i.i = getelementptr inbounds i8, ptr %read_options, i64 64
  store i8 0, ptr %_M_engaged.i.i.i.i.i, align 8
  %verify_checksums.i = getelementptr inbounds i8, ptr %read_options, i64 72
  store <4 x i8> <i8 1, i8 1, i8 0, i8 0>, ptr %verify_checksums.i, align 8
  %optimize_multiget_for_io.i = getelementptr inbounds i8, ptr %read_options, i64 76
  store i8 1, ptr %optimize_multiget_for_io.i, align 4
  %readahead_size.i = getelementptr inbounds i8, ptr %read_options, i64 80
  %auto_readahead_size.i = getelementptr inbounds i8, ptr %read_options, i64 152
  call void @llvm.memset.p0.i64(ptr noundef nonnull align 8 dereferenceable(72) %readahead_size.i, i8 0, i64 72, i1 false)
  store i8 1, ptr %auto_readahead_size.i, align 8
  %io_activity.i = getelementptr inbounds i8, ptr %read_options, i64 153
  store i8 10, ptr %io_activity.i, align 1
  %cmp = icmp eq ptr %version, null
  br i1 %cmp, label %cond.end.thread, label %cond.false

cond.end.thread:                                  ; preds = %entry
  store i64 0, ptr %value, align 8
  br label %_ZN7rocksdb11ReadOptionsD2Ev.exit

cond.false:                                       ; preds = %entry
  %call = invoke noundef i64 @_ZN7rocksdb7Version28GetMemoryUsageByTableReadersERKNS_11ReadOptionsE(ptr noundef nonnull align 16 dereferenceable(4953) %version, ptr noundef nonnull align 8 dereferenceable(154) %read_options)
          to label %cond.end unwind label %lpad

cond.end:                                         ; preds = %cond.false
  %_M_manager.i.i.i.phi.trans.insert = getelementptr inbounds i8, ptr %read_options, i64 136
  %.pre = load ptr, ptr %_M_manager.i.i.i.phi.trans.insert, align 8
  store i64 %call, ptr %value, align 8
  %tobool.not.i.i.i = icmp eq ptr %.pre, null
  br i1 %tobool.not.i.i.i, label %_ZN7rocksdb11ReadOptionsD2Ev.exit, label %if.then.i.i.i

if.then.i.i.i:                                    ; preds = %cond.end
  %table_filter.i = getelementptr inbounds i8, ptr %read_options, i64 120
  %call.i.i.i = invoke noundef zeroext i1 %.pre(ptr noundef nonnull align 8 dereferenceable(16) %table_filter.i, ptr noundef nonnull align 8 dereferenceable(16) %table_filter.i, i32 noundef 3)
          to label %_ZN7rocksdb11ReadOptionsD2Ev.exit unwind label %terminate.lpad.i.i.i

terminate.lpad.i.i.i:                             ; preds = %if.then.i.i.i
  %1 = landingpad { ptr, i32 }
          catch ptr null
  %2 = extractvalue { ptr, i32 } %1, 0
  call void @__clang_call_terminate(ptr %2) #31
  unreachable

_ZN7rocksdb11ReadOptionsD2Ev.exit:                ; preds = %cond.end.thread, %cond.end, %if.then.i.i.i
  ret i1 true

lpad:                                             ; preds = %cond.false
  %3 = landingpad { ptr, i32 }
          cleanup
  %_M_manager.i.i.i2 = getelementptr inbounds i8, ptr %read_options, i64 136
  %4 = load ptr, ptr %_M_manager.i.i.i2, align 8
  %tobool.not.i.i.i3 = icmp eq ptr %4, null
  br i1 %tobool.not.i.i.i3, label %_ZN7rocksdb11ReadOptionsD2Ev.exit8, label %if.then.i.i.i4

if.then.i.i.i4:                                   ; preds = %lpad
  %table_filter.i5 = getelementptr inbounds i8, ptr %read_options, i64 120
  %call.i.i.i6 = invoke noundef zeroext i1 %4(ptr noundef nonnull align 8 dereferenceable(16) %table_filter.i5, ptr noundef nonnull align 8 dereferenceable(16) %table_filter.i5, i32 noundef 3)
          to label %_ZN7rocksdb11ReadOptionsD2Ev.exit8 unwind label %terminate.lpad.i.i.i7

terminate.lpad.i.i.i7:                            ; preds = %if.then.i.i.i4
  %5 = landingpad { ptr, i32 }
          catch ptr null
  %6 = extractvalue { ptr, i32 } %5, 0
  call void @__clang_call_terminate(ptr %6) #31
  unreachable

_ZN7rocksdb11ReadOptionsD2Ev.exit8:               ; preds = %lpad, %if.then.i.i.i4
  resume { ptr, i32 } %3
}